; ModuleID = 'source-C-CXX/42/1790.c'
source_filename = "source-C-CXX/42/1790.c"
target datalayout = "e-m:e-p270:32:32-p271:32:32-p272:64:64-i64:64-f80:128-n8:16:32:64-S128"
target triple = "x86_64-pc-linux-gnu"

@.str = private unnamed_addr constant [3 x i8] c"%d\00", align 1
@.str.1 = private unnamed_addr constant [7 x i8] c"%d %d\0A\00", align 1

; Function Attrs: nofree nounwind sspstrong uwtable
define dso_local i32 @main() local_unnamed_addr #0 {
  %1 = alloca i32, align 4
  %2 = bitcast i32* %1 to i8*
  call void @llvm.lifetime.start.p0i8(i64 4, i8* nonnull %2) #4
  %3 = call i32 (i8*, ...) @__isoc99_scanf(i8* getelementptr inbounds ([3 x i8], [3 x i8]* @.str, i64 0, i64 0), i32* nonnull %1)
  %4 = load i32, i32* %1, align 4, !tbaa !5
  %5 = icmp sgt i32 %4, 3
  br i1 %5, label %6, label %51

6:                                                ; preds = %0, %47
  %7 = phi i32 [ %48, %47 ], [ 3, %0 ]
  %8 = sitofp i32 %7 to double
  %9 = call double @sqrt(double %8) #4
  %10 = fcmp ult double %9, 2.000000e+00
  br i1 %10, label %24, label %11

11:                                               ; preds = %6, %11
  %12 = phi i32 [ %17, %11 ], [ 0, %6 ]
  %13 = phi i32 [ %18, %11 ], [ 2, %6 ]
  %14 = urem i32 %7, %13
  %15 = icmp eq i32 %14, 0
  %16 = zext i1 %15 to i32
  %17 = add nuw nsw i32 %12, %16
  %18 = add nuw nsw i32 %13, 1
  %19 = sitofp i32 %18 to double
  %20 = call double @sqrt(double %8) #4
  %21 = fcmp ult double %20, %19
  br i1 %21, label %22, label %11, !llvm.loop !9

22:                                               ; preds = %11
  %23 = icmp eq i32 %17, 0
  br i1 %23, label %24, label %47

24:                                               ; preds = %6, %22
  %25 = load i32, i32* %1, align 4, !tbaa !5
  %26 = sub nsw i32 %25, %7
  %27 = icmp slt i32 %26, %7
  br i1 %27, label %47, label %28

28:                                               ; preds = %24
  %29 = sitofp i32 %26 to double
  %30 = call double @sqrt(double %29) #4
  %31 = fcmp ult double %30, 2.000000e+00
  br i1 %31, label %45, label %32

32:                                               ; preds = %28, %32
  %33 = phi i32 [ %38, %32 ], [ 0, %28 ]
  %34 = phi i32 [ %39, %32 ], [ 2, %28 ]
  %35 = srem i32 %26, %34
  %36 = icmp eq i32 %35, 0
  %37 = zext i1 %36 to i32
  %38 = add nuw nsw i32 %33, %37
  %39 = add nuw nsw i32 %34, 1
  %40 = sitofp i32 %39 to double
  %41 = call double @sqrt(double %29) #4
  %42 = fcmp ult double %41, %40
  br i1 %42, label %43, label %32, !llvm.loop !11

43:                                               ; preds = %32
  %44 = icmp eq i32 %38, 0
  br i1 %44, label %45, label %47

45:                                               ; preds = %28, %43
  %46 = call i32 (i8*, ...) @printf(i8* nonnull dereferenceable(1) getelementptr inbounds ([7 x i8], [7 x i8]* @.str.1, i64 0, i64 0), i32 %7, i32 %26)
  br label %47

47:                                               ; preds = %43, %45, %24, %22
  %48 = add nuw nsw i32 %7, 1
  %49 = load i32, i32* %1, align 4, !tbaa !5
  %50 = icmp slt i32 %48, %49
  br i1 %50, label %6, label %51, !llvm.loop !12

51:                                               ; preds = %47, %0
  call void @llvm.lifetime.end.p0i8(i64 4, i8* nonnull %2) #4
  ret i32 0
}

; Function Attrs: argmemonly mustprogress nofree nosync nounwind willreturn
declare void @llvm.lifetime.start.p0i8(i64 immarg, i8* nocapture) #1

; Function Attrs: nofree nounwind
declare noundef i32 @__isoc99_scanf(i8* nocapture noundef readonly, ...) local_unnamed_addr #2

; Function Attrs: mustprogress nofree nounwind willreturn
declare double @sqrt(double) local_unnamed_addr #3

; Function Attrs: nofree nounwind
declare noundef i32 @printf(i8* nocapture noundef readonly, ...) local_unnamed_addr #2

; Function Attrs: argmemonly mustprogress nofree nosync nounwind willreturn
declare void @llvm.lifetime.end.p0i8(i64 immarg, i8* nocapture) #1


!llvm.module.flags = !{!0, !1, !2, !3}
!llvm.ident = !{!4}

!0 = !{i32 1, !"wchar_size", i32 4}
!1 = !{i32 7, !"PIC Level", i32 2}
!2 = !{i32 7, !"PIE Level", i32 2}
!3 = !{i32 7, !"uwtable", i32 1}
!4 = !{!"clang version 13.0.0"}
!5 = !{!6, !6, i64 0}
!6 = !{!"int", !7, i64 0}
!7 = !{!"omnipotent char", !8, i64 0}
!8 = !{!"Simple C/C++ TBAA"}
!9 = distinct !{!9, !10}
!10 = !{!"llvm.loop.mustprogress"}
!11 = distinct !{!11, !10}
!12 = distinct !{!12, !10}
